target datalayout = "e-m:e-p270:32:32-p271:32:32-p272:64:64-i64:64-i128:128-f80:128-n8:16:32:64-S128"
target triple = "x86_64-pc-linux-gnu"

%struct.FT_StreamRec_ = type { ptr, i64, i64, %union.FT_StreamDesc_, %union.FT_StreamDesc_, ptr, ptr, ptr, ptr, ptr }
%union.FT_StreamDesc_ = type { i64 }

; Function Attrs: nounwind uwtable
define hidden i32 @FT_Stream_GetULongLE(ptr noundef %0) #0 {
  %2 = alloca ptr, align 8
  %3 = alloca ptr, align 8
  %4 = alloca i32, align 4
  store ptr %0, ptr %2, align 8, !tbaa !268
  call void @llvm.lifetime.start.p0(i64 8, ptr %3) #10
  call void @llvm.lifetime.start.p0(i64 4, ptr %4) #10
  br label %5

5:                                                ; preds = %1
  br label %6

6:                                                ; preds = %5
  br label %7

7:                                                ; preds = %6
  store i32 0, ptr %4, align 4, !tbaa !8
  %8 = load ptr, ptr %2, align 8, !tbaa !268
  %9 = getelementptr inbounds nuw %struct.FT_StreamRec_, ptr %8, i32 0, i32 8
  %10 = load ptr, ptr %9, align 8, !tbaa !282
  store ptr %10, ptr %3, align 8, !tbaa !183
  %11 = load ptr, ptr %3, align 8, !tbaa !183
  %12 = getelementptr inbounds i8, ptr %11, i64 3
  %13 = load ptr, ptr %2, align 8, !tbaa !268
  %14 = getelementptr inbounds nuw %struct.FT_StreamRec_, ptr %13, i32 0, i32 9
  %15 = load ptr, ptr %14, align 8, !tbaa !668
  %16 = icmp ult ptr %12, %15
  br i1 %16, label %17, label %47

17:                                               ; preds = %7
  %18 = load ptr, ptr %3, align 8, !tbaa !183
  %19 = getelementptr inbounds i8, ptr %18, i64 4
  store ptr %19, ptr %3, align 8, !tbaa !183
  %20 = load ptr, ptr %3, align 8, !tbaa !183
  %21 = getelementptr inbounds i8, ptr %20, i64 -4
  %22 = getelementptr inbounds i8, ptr %21, i64 3
  %23 = load i8, ptr %22, align 1, !tbaa !64
  %24 = zext i8 %23 to i32
  %25 = shl i32 %24, 24
  %26 = load ptr, ptr %3, align 8, !tbaa !183
  %27 = getelementptr inbounds i8, ptr %26, i64 -4
  %28 = getelementptr inbounds i8, ptr %27, i64 2
  %29 = load i8, ptr %28, align 1, !tbaa !64
  %30 = zext i8 %29 to i32
  %31 = shl i32 %30, 16
  %32 = or i32 %25, %31
  %33 = load ptr, ptr %3, align 8, !tbaa !183
  %34 = getelementptr inbounds i8, ptr %33, i64 -4
  %35 = getelementptr inbounds i8, ptr %34, i64 1
  %36 = load i8, ptr %35, align 1, !tbaa !64
  %37 = zext i8 %36 to i32
  %38 = shl i32 %37, 8
  %39 = or i32 %32, %38
  %40 = load ptr, ptr %3, align 8, !tbaa !183
  %41 = getelementptr inbounds i8, ptr %40, i64 -4
  %42 = getelementptr inbounds i8, ptr %41, i64 0
  %43 = load i8, ptr %42, align 1, !tbaa !64
  %44 = zext i8 %43 to i32
  %45 = shl i32 %44, 0
  %46 = or i32 %39, %45
  store i32 %46, ptr %4, align 4, !tbaa !8
  br label %47

47:                                               ; preds = %17, %7
  %48 = load ptr, ptr %3, align 8, !tbaa !183
  %49 = load ptr, ptr %2, align 8, !tbaa !268
  %50 = getelementptr inbounds nuw %struct.FT_StreamRec_, ptr %49, i32 0, i32 8
  store ptr %48, ptr %50, align 8, !tbaa !282
  %51 = load i32, ptr %4, align 4, !tbaa !8
  call void @llvm.lifetime.end.p0(i64 4, ptr %4) #10
  call void @llvm.lifetime.end.p0(i64 8, ptr %3) #10
  ret i32 %51
}