; Function Attrs: mustprogress nofree norecurse nosync nounwind willreturn memory(read, argmem: readwrite, inaccessiblemem: none) uwtable
define hidden i32 @FT_Stream_GetULongLE(ptr noundef captures(none) %0) local_unnamed_addr #12 {
  %2 = getelementptr inbounds nuw i8, ptr %0, i64 64
  %3 = load ptr, ptr %2, align 8, !tbaa !250
  %4 = getelementptr inbounds nuw i8, ptr %3, i64 3
  %5 = getelementptr inbounds nuw i8, ptr %0, i64 72
  %6 = load ptr, ptr %5, align 8, !tbaa !544
  %7 = icmp ult ptr %4, %6
  br i1 %7, label %8, label %11

8:                                                ; preds = %1
  %9 = getelementptr inbounds nuw i8, ptr %3, i64 4
  %10 = load i32, ptr %3, align 1
  br label %11

11:                                               ; preds = %8, %1
  %.010 = phi ptr [ %9, %8 ], [ %3, %1 ]
  %.0 = phi i32 [ %10, %8 ], [ 0, %1 ]
  store ptr %.010, ptr %2, align 8, !tbaa !250
  ret i32 %.0
}